target datalayout = "e-m:e-p270:32:32-p271:32:32-p272:64:64-i64:64-i128:128-f80:128-n8:16:32:64-S128"
target triple = "x86_64-pc-linux-gnu"

%struct.mbedtls_ssl_context = type { ptr, i32, i32, i32, i32, i32, ptr, ptr, ptr, ptr, ptr, ptr, ptr, ptr, ptr, ptr, ptr, ptr, ptr, ptr, ptr, ptr, ptr, ptr, ptr, ptr, ptr, ptr, ptr, ptr, ptr, ptr, ptr, i32, i64, i64, i16, i64, i64, i64, i64, i32, i32, i8, i8, i32, i8, ptr, ptr, ptr, ptr, ptr, ptr, ptr, i32, i64, i64, [8 x i8], i16, ptr, ptr, ptr, i64, i32, i64, [12 x i8], [12 x i8], [32 x i8], i8, i8, ptr, ptr, %union.mbedtls_ssl_user_data_t }
%union.mbedtls_ssl_user_data_t = type { i64 }
%struct.mbedtls_ssl_config = type { i32, i32, i8, i8, i8, i8, i8, i8, i8, i8, i8, i8, i16, i8, i8, i8, ptr, i32, ptr, ptr, ptr, ptr, ptr, ptr, ptr, ptr, ptr, ptr, ptr, ptr, ptr, ptr, ptr, ptr, ptr, ptr, ptr, i64, ptr, ptr, ptr, ptr, ptr, ptr, ptr, ptr, %struct.mbedtls_mpi, %struct.mbedtls_mpi, ptr, i64, ptr, i64, ptr, i32, i32, i32, i32, [8 x i8], i32, i32, %union.mbedtls_ssl_user_data_t, ptr, ptr }
%struct.mbedtls_mpi = type { ptr, i16, i16 }
%struct.mbedtls_md_context_t = type { ptr, ptr, ptr }
%struct.mbedtls_ssl_handshake_params = type { i8, i8, i8, i8, i8, i32, i8, i8, i8, i8, ptr, ptr, ptr, ptr, ptr, i8, i8, i8, i8, i16, i16, [20 x i16], ptr, ptr, %struct.mbedtls_dhm_context, %struct.mbedtls_ecdh_context, i16, i64, i32, i8, [1024 x i8], i64, ptr, ptr, i64, i16, ptr, ptr, ptr, ptr, %struct.anon, ptr, i16, i8, i32, i32, i32, ptr, ptr, ptr, i32, ptr, [8 x i8], i8, [32 x i8], i8, i16, %struct.mbedtls_md_context_t, %struct.mbedtls_md_context_t, i16, i8, %union.anon.1, [64 x i8], [1076 x i8], i64, i32, i32, i8, ptr, ptr, %union.anon.4, %struct.mbedtls_ssl_tls13_handshake_secrets, ptr, i64, ptr }
%struct.mbedtls_dhm_context = type { %struct.mbedtls_mpi, %struct.mbedtls_mpi, %struct.mbedtls_mpi, %struct.mbedtls_mpi, %struct.mbedtls_mpi, %struct.mbedtls_mpi, %struct.mbedtls_mpi, %struct.mbedtls_mpi, %struct.mbedtls_mpi, %struct.mbedtls_mpi }
%struct.mbedtls_ecdh_context = type { i8, i32, i32, %union.anon }
%union.anon = type { %struct.mbedtls_ecdh_context_mbed }
%struct.mbedtls_ecdh_context_mbed = type { %struct.mbedtls_ecp_group, %struct.mbedtls_mpi, %struct.mbedtls_ecp_point, %struct.mbedtls_ecp_point, %struct.mbedtls_mpi }
%struct.mbedtls_ecp_group = type { i32, %struct.mbedtls_mpi, %struct.mbedtls_mpi, %struct.mbedtls_mpi, %struct.mbedtls_ecp_point, %struct.mbedtls_mpi, i64, i64, i32, ptr, ptr, ptr, ptr, ptr, i64 }
%struct.mbedtls_ecp_point = type { %struct.mbedtls_mpi, %struct.mbedtls_mpi, %struct.mbedtls_mpi }
%struct.anon = type { i64, i8, [4 x %struct.mbedtls_ssl_hs_buffer], %struct.anon.0 }
%struct.mbedtls_ssl_hs_buffer = type { i8, ptr, i64 }
%struct.anon.0 = type { ptr, i64, i32 }
%union.anon.1 = type { %struct.anon.2 }
%struct.anon.2 = type { i8, [64 x i8], i64 }
%union.anon.4 = type { [64 x i8] }
%struct.mbedtls_ssl_tls13_handshake_secrets = type { [64 x i8], [64 x i8] }

@.str = private unnamed_addr constant [121 x i8] c"generated/home/dtcxzyw/WorkSpace/Projects/compilers/llvm-opt-benchmark/bench/lief/bench_build/mbed_src/library/ssl_msg.c\00", align 1
@.str.145 = private unnamed_addr constant [30 x i8] c"mtu autoreduction to %d bytes\00", align 1
@.str.146 = private unnamed_addr constant [38 x i8] c"update timeout value to %lu millisecs\00", align 1

; Function Attrs: nounwind uwtable
define internal i32 @ssl_double_retransmit_timeout(ptr noundef %0) #0 {
  %2 = alloca i32, align 4
  %3 = alloca ptr, align 8
  %4 = alloca i32, align 4
  %5 = alloca i32, align 4
  store ptr %0, ptr %3, align 8, !tbaa !3
  call void @llvm.lifetime.start.p0(i64 4, ptr %4) #11
  %6 = load ptr, ptr %3, align 8, !tbaa !3
  %7 = getelementptr inbounds nuw %struct.mbedtls_ssl_context, ptr %6, i32 0, i32 16
  %8 = load ptr, ptr %7, align 8, !tbaa !81
  %9 = getelementptr inbounds nuw %struct.mbedtls_ssl_handshake_params, ptr %8, i32 0, i32 46
  %10 = load i32, ptr %9, align 4, !tbaa !82
  %11 = load ptr, ptr %3, align 8, !tbaa !3
  %12 = getelementptr inbounds nuw %struct.mbedtls_ssl_context, ptr %11, i32 0, i32 0
  %13 = load ptr, ptr %12, align 8, !tbaa !23
  %14 = getelementptr inbounds nuw %struct.mbedtls_ssl_config, ptr %13, i32 0, i32 55
  %15 = load i32, ptr %14, align 8, !tbaa !97
  %16 = icmp uge i32 %10, %15
  br i1 %16, label %17, label %18

17:                                               ; preds = %1
  store i32 -1, ptr %2, align 4
  store i32 1, ptr %5, align 4
  br label %83

18:                                               ; preds = %1
  %19 = load ptr, ptr %3, align 8, !tbaa !3
  %20 = getelementptr inbounds nuw %struct.mbedtls_ssl_context, ptr %19, i32 0, i32 16
  %21 = load ptr, ptr %20, align 8, !tbaa !81
  %22 = getelementptr inbounds nuw %struct.mbedtls_ssl_handshake_params, ptr %21, i32 0, i32 46
  %23 = load i32, ptr %22, align 4, !tbaa !82
  %24 = load ptr, ptr %3, align 8, !tbaa !3
  %25 = getelementptr inbounds nuw %struct.mbedtls_ssl_context, ptr %24, i32 0, i32 0
  %26 = load ptr, ptr %25, align 8, !tbaa !23
  %27 = getelementptr inbounds nuw %struct.mbedtls_ssl_config, ptr %26, i32 0, i32 54
  %28 = load i32, ptr %27, align 4, !tbaa !98
  %29 = icmp ne i32 %23, %28
  br i1 %29, label %30, label %42

30:                                               ; preds = %18
  %31 = load ptr, ptr %3, align 8, !tbaa !3
  %32 = getelementptr inbounds nuw %struct.mbedtls_ssl_context, ptr %31, i32 0, i32 16
  %33 = load ptr, ptr %32, align 8, !tbaa !81
  %34 = getelementptr inbounds nuw %struct.mbedtls_ssl_handshake_params, ptr %33, i32 0, i32 56
  store i16 508, ptr %34, align 2, !tbaa !99
  %35 = load ptr, ptr %3, align 8, !tbaa !3
  %36 = load ptr, ptr %3, align 8, !tbaa !3
  %37 = getelementptr inbounds nuw %struct.mbedtls_ssl_context, ptr %36, i32 0, i32 16
  %38 = load ptr, ptr %37, align 8, !tbaa !81
  %39 = getelementptr inbounds nuw %struct.mbedtls_ssl_handshake_params, ptr %38, i32 0, i32 56
  %40 = load i16, ptr %39, align 2, !tbaa !99
  %41 = zext i16 %40 to i32
  call void (ptr, i32, ptr, i32, ptr, ...) @mbedtls_debug_print_msg(ptr noundef %35, i32 noundef 2, ptr noundef @.str, i32 noundef 497, ptr noundef @.str.145, i32 noundef %41)
  br label %42

42:                                               ; preds = %30, %18
  %43 = load ptr, ptr %3, align 8, !tbaa !3
  %44 = getelementptr inbounds nuw %struct.mbedtls_ssl_context, ptr %43, i32 0, i32 16
  %45 = load ptr, ptr %44, align 8, !tbaa !81
  %46 = getelementptr inbounds nuw %struct.mbedtls_ssl_handshake_params, ptr %45, i32 0, i32 46
  %47 = load i32, ptr %46, align 4, !tbaa !82
  %48 = mul i32 2, %47
  store i32 %48, ptr %4, align 4, !tbaa !8
  %49 = load i32, ptr %4, align 4, !tbaa !8
  %50 = load ptr, ptr %3, align 8, !tbaa !3
  %51 = getelementptr inbounds nuw %struct.mbedtls_ssl_context, ptr %50, i32 0, i32 16
  %52 = load ptr, ptr %51, align 8, !tbaa !81
  %53 = getelementptr inbounds nuw %struct.mbedtls_ssl_handshake_params, ptr %52, i32 0, i32 46
  %54 = load i32, ptr %53, align 4, !tbaa !82
  %55 = icmp ult i32 %49, %54
  br i1 %55, label %64, label %56

56:                                               ; preds = %42
  %57 = load i32, ptr %4, align 4, !tbaa !8
  %58 = load ptr, ptr %3, align 8, !tbaa !3
  %59 = getelementptr inbounds nuw %struct.mbedtls_ssl_context, ptr %58, i32 0, i32 0
  %60 = load ptr, ptr %59, align 8, !tbaa !23
  %61 = getelementptr inbounds nuw %struct.mbedtls_ssl_config, ptr %60, i32 0, i32 55
  %62 = load i32, ptr %61, align 8, !tbaa !97
  %63 = icmp ugt i32 %57, %62
  br i1 %63, label %64, label %70

64:                                               ; preds = %56, %42
  %65 = load ptr, ptr %3, align 8, !tbaa !3
  %66 = getelementptr inbounds nuw %struct.mbedtls_ssl_context, ptr %65, i32 0, i32 0
  %67 = load ptr, ptr %66, align 8, !tbaa !23
  %68 = getelementptr inbounds nuw %struct.mbedtls_ssl_config, ptr %67, i32 0, i32 55
  %69 = load i32, ptr %68, align 8, !tbaa !97
  store i32 %69, ptr %4, align 4, !tbaa !8
  br label %70

70:                                               ; preds = %64, %56
  %71 = load i32, ptr %4, align 4, !tbaa !8
  %72 = load ptr, ptr %3, align 8, !tbaa !3
  %73 = getelementptr inbounds nuw %struct.mbedtls_ssl_context, ptr %72, i32 0, i32 16
  %74 = load ptr, ptr %73, align 8, !tbaa !81
  %75 = getelementptr inbounds nuw %struct.mbedtls_ssl_handshake_params, ptr %74, i32 0, i32 46
  store i32 %71, ptr %75, align 4, !tbaa !82
  %76 = load ptr, ptr %3, align 8, !tbaa !3
  %77 = load ptr, ptr %3, align 8, !tbaa !3
  %78 = getelementptr inbounds nuw %struct.mbedtls_ssl_context, ptr %77, i32 0, i32 16
  %79 = load ptr, ptr %78, align 8, !tbaa !81
  %80 = getelementptr inbounds nuw %struct.mbedtls_ssl_handshake_params, ptr %79, i32 0, i32 46
  %81 = load i32, ptr %80, align 4, !tbaa !82
  %82 = zext i32 %81 to i64
  call void (ptr, i32, ptr, i32, ptr, ...) @mbedtls_debug_print_msg(ptr noundef %76, i32 noundef 3, ptr noundef @.str, i32 noundef 510, ptr noundef @.str.146, i64 noundef %82)
  store i32 0, ptr %2, align 4
  store i32 1, ptr %5, align 4
  br label %83

83:                                               ; preds = %70, %17
  call void @llvm.lifetime.end.p0(i64 4, ptr %4) #11
  %84 = load i32, ptr %2, align 4
  ret i32 %84
}