; Function Attrs: nounwind uwtable
define internal fastcc range(i32 -1, 1) i32 @ssl_double_retransmit_timeout(ptr noundef %0) unnamed_addr #0 {
  %2 = getelementptr inbounds nuw i8, ptr %0, i64 112
  %3 = load ptr, ptr %2, align 8, !tbaa !75
  %4 = getelementptr inbounds nuw i8, ptr %3, i64 1892
  %5 = load i32, ptr %4, align 4, !tbaa !82
  %6 = load ptr, ptr %0, align 8, !tbaa !18
  %7 = getelementptr inbounds nuw i8, ptr %6, i64 344
  %8 = load i32, ptr %7, align 8, !tbaa !91
  %.not = icmp ult i32 %5, %8
  br i1 %.not, label %9, label %25

9:                                                ; preds = %1
  %10 = getelementptr inbounds nuw i8, ptr %6, i64 340
  %11 = load i32, ptr %10, align 4, !tbaa !92
  %.not20 = icmp eq i32 %5, %11
  br i1 %.not20, label %14, label %12

12:                                               ; preds = %9
  %13 = getelementptr inbounds nuw i8, ptr %3, i64 1978
  store i16 508, ptr %13, align 2, !tbaa !93
  tail call void (ptr, i32, ptr, i32, ptr, ...) @mbedtls_debug_print_msg(ptr noundef nonnull %0, i32 noundef 2, ptr noundef nonnull @.str, i32 noundef 497, ptr noundef nonnull @.str.145, i32 noundef 508) #19
  %.pre = load ptr, ptr %2, align 8, !tbaa !75
  %.phi.trans.insert = getelementptr inbounds nuw i8, ptr %.pre, i64 1892
  %.pre21 = load i32, ptr %.phi.trans.insert, align 4, !tbaa !82
  %.pre22.pre = load ptr, ptr %0, align 8, !tbaa !18
  br label %14

14:                                               ; preds = %12, %9
  %.pre22 = phi ptr [ %.pre22.pre, %12 ], [ %6, %9 ]
  %15 = phi i32 [ %.pre21, %12 ], [ %5, %9 ]
  %16 = phi ptr [ %.pre, %12 ], [ %3, %9 ]
  %17 = getelementptr inbounds nuw i8, ptr %16, i64 1892
  %18 = icmp slt i32 %15, 0
  br i1 %18, label %._crit_edge, label %19

._crit_edge:                                      ; preds = %14
  %.phi.trans.insert23 = getelementptr inbounds nuw i8, ptr %.pre22, i64 344
  %.pre24 = load i32, ptr %.phi.trans.insert23, align 8, !tbaa !91
  br label %23

19:                                               ; preds = %14
  %20 = shl nuw i32 %15, 1
  %21 = getelementptr inbounds nuw i8, ptr %.pre22, i64 344
  %22 = load i32, ptr %21, align 8, !tbaa !91
  %spec.select = tail call i32 @llvm.umin.i32(i32 %20, i32 %22)
  br label %23

23:                                               ; preds = %19, %._crit_edge
  %.0 = phi i32 [ %.pre24, %._crit_edge ], [ %spec.select, %19 ]
  store i32 %.0, ptr %17, align 4, !tbaa !82
  %24 = zext i32 %.0 to i64
  tail call void (ptr, i32, ptr, i32, ptr, ...) @mbedtls_debug_print_msg(ptr noundef nonnull %0, i32 noundef 3, ptr noundef nonnull @.str, i32 noundef 510, ptr noundef nonnull @.str.146, i64 noundef %24) #19
  br label %25

25:                                               ; preds = %1, %23
  %.017 = phi i32 [ 0, %23 ], [ -1, %1 ]
  ret i32 %.017
}